target datalayout = "e-m:e-p270:32:32-p271:32:32-p272:64:64-i64:64-i128:128-f80:128-n8:16:32:64-S128"
target triple = "x86_64-pc-linux-gnu"

%struct.evp_test_st = type { %struct.stanza_st, ptr, i32, ptr, ptr, ptr, ptr, ptr, ptr, i32 }
%struct.stanza_st = type { ptr, ptr, i32, i32, i32, i32, i32, i32, [150 x %struct.pair_st], ptr, [32768 x i8] }
%struct.pair_st = type { ptr, ptr }
%struct.evp_test_buffer_st = type { ptr, i64, i64, i32 }
%struct.DIGESTSIGN_DATA = type { i32, i32, ptr, ptr, ptr, ptr, ptr, i64, ptr, i64, i32, ptr, ptr, ptr }

@.str.233 = private unnamed_addr constant [19 x i8] c"DIGESTUPDATE_ERROR\00", align 1
@.str.270 = private unnamed_addr constant [13 x i8] c"VERIFY_ERROR\00", align 1

; Function Attrs: inlinehint nounwind uwtable
define internal ptr @sk_EVP_TEST_BUFFER_value(ptr noundef %0, i32 noundef %1) #5 {
  %3 = alloca ptr, align 8
  %4 = alloca i32, align 4
  store ptr %0, ptr %3, align 8, !tbaa !204
  store i32 %1, ptr %4, align 4, !tbaa !9
  %5 = load ptr, ptr %3, align 8, !tbaa !204
  %6 = load i32, ptr %4, align 4, !tbaa !9
  %7 = call ptr @OPENSSL_sk_value(ptr noundef %5, i32 noundef %6)
  ret ptr %7
}

; Function Attrs: inlinehint nounwind uwtable
define internal i32 @sk_EVP_TEST_BUFFER_num(ptr noundef %0) #5 {
  %2 = alloca ptr, align 8
  store ptr %0, ptr %2, align 8, !tbaa !204
  %3 = load ptr, ptr %2, align 8, !tbaa !204
  %4 = call i32 @OPENSSL_sk_num(ptr noundef %3)
  ret i32 %4
}

; Function Attrs: nounwind uwtable
define internal i32 @evp_test_buffer_do(ptr noundef %0, ptr noundef %1, ptr noundef %2) #0 {
  %4 = alloca i32, align 4
  %5 = alloca ptr, align 8
  %6 = alloca ptr, align 8
  %7 = alloca ptr, align 8
  %8 = alloca i32, align 4
  %9 = alloca ptr, align 8
  %10 = alloca i64, align 8
  %11 = alloca i32, align 4
  store ptr %0, ptr %5, align 8, !tbaa !204
  store ptr %1, ptr %6, align 8, !tbaa !97
  store ptr %2, ptr %7, align 8, !tbaa !97
  call void @llvm.lifetime.start.p0(i64 4, ptr %8) #10
  store i32 0, ptr %8, align 4, !tbaa !9
  br label %12

12:                                               ; preds = %47, %3
  %13 = load i32, ptr %8, align 4, !tbaa !9
  %14 = load ptr, ptr %5, align 8, !tbaa !204
  %15 = call i32 @sk_EVP_TEST_BUFFER_num(ptr noundef %14)
  %16 = icmp slt i32 %13, %15
  br i1 %16, label %17, label %50

17:                                               ; preds = %12
  call void @llvm.lifetime.start.p0(i64 8, ptr %9) #10
  %18 = load ptr, ptr %5, align 8, !tbaa !204
  %19 = load i32, ptr %8, align 4, !tbaa !9
  %20 = call ptr @sk_EVP_TEST_BUFFER_value(ptr noundef %18, i32 noundef %19)
  store ptr %20, ptr %9, align 8, !tbaa !198
  call void @llvm.lifetime.start.p0(i64 8, ptr %10) #10
  store i64 0, ptr %10, align 8, !tbaa !13
  br label %21

21:                                               ; preds = %40, %17
  %22 = load i64, ptr %10, align 8, !tbaa !13
  %23 = load ptr, ptr %9, align 8, !tbaa !198
  %24 = getelementptr inbounds nuw %struct.evp_test_buffer_st, ptr %23, i32 0, i32 2
  %25 = load i64, ptr %24, align 8, !tbaa !207
  %26 = icmp ult i64 %22, %25
  br i1 %26, label %27, label %43

27:                                               ; preds = %21
  %28 = load ptr, ptr %6, align 8, !tbaa !97
  %29 = load ptr, ptr %7, align 8, !tbaa !97
  %30 = load ptr, ptr %9, align 8, !tbaa !198
  %31 = getelementptr inbounds nuw %struct.evp_test_buffer_st, ptr %30, i32 0, i32 0
  %32 = load ptr, ptr %31, align 8, !tbaa !202
  %33 = load ptr, ptr %9, align 8, !tbaa !198
  %34 = getelementptr inbounds nuw %struct.evp_test_buffer_st, ptr %33, i32 0, i32 1
  %35 = load i64, ptr %34, align 8, !tbaa !203
  %36 = call i32 %28(ptr noundef %29, ptr noundef %32, i64 noundef %35)
  %37 = icmp sle i32 %36, 0
  br i1 %37, label %38, label %39

38:                                               ; preds = %27
  store i32 0, ptr %4, align 4
  store i32 1, ptr %11, align 4
  br label %44

39:                                               ; preds = %27
  br label %40

40:                                               ; preds = %39
  %41 = load i64, ptr %10, align 8, !tbaa !13
  %42 = add i64 %41, 1
  store i64 %42, ptr %10, align 8, !tbaa !13
  br label %21, !llvm.loop !210

43:                                               ; preds = %21
  store i32 0, ptr %11, align 4
  br label %44

44:                                               ; preds = %43, %38
  call void @llvm.lifetime.end.p0(i64 8, ptr %10) #10
  call void @llvm.lifetime.end.p0(i64 8, ptr %9) #10
  %45 = load i32, ptr %11, align 4
  switch i32 %45, label %51 [
    i32 0, label %46
  ]

46:                                               ; preds = %44
  br label %47

47:                                               ; preds = %46
  %48 = load i32, ptr %8, align 4, !tbaa !9
  %49 = add nsw i32 %48, 1
  store i32 %49, ptr %8, align 4, !tbaa !9
  br label %12, !llvm.loop !211

50:                                               ; preds = %12
  store i32 1, ptr %4, align 4
  store i32 1, ptr %11, align 4
  br label %51

51:                                               ; preds = %50, %44
  call void @llvm.lifetime.end.p0(i64 4, ptr %8) #10
  %52 = load i32, ptr %4, align 4
  ret i32 %52
}

; Function Attrs: nounwind uwtable
define internal i32 @digestverify_test_run(ptr noundef %0) #0 {
  %2 = alloca i32, align 4
  %3 = alloca ptr, align 8
  %4 = alloca ptr, align 8
  %5 = alloca i32, align 4
  store ptr %0, ptr %3, align 8, !tbaa !15
  call void @llvm.lifetime.start.p0(i64 8, ptr %4) #10
  %6 = load ptr, ptr %3, align 8, !tbaa !15
  %7 = getelementptr inbounds nuw %struct.evp_test_st, ptr %6, i32 0, i32 8
  %8 = load ptr, ptr %7, align 8, !tbaa !66
  store ptr %8, ptr %4, align 8, !tbaa !97
  %9 = load ptr, ptr %3, align 8, !tbaa !15
  %10 = load ptr, ptr %4, align 8, !tbaa !97
  %11 = call i32 @signverify_init(ptr noundef %9, ptr noundef %10)
  %12 = icmp ne i32 %11, 0
  br i1 %12, label %14, label %13

13:                                               ; preds = %1
  store i32 1, ptr %2, align 4
  store i32 1, ptr %5, align 4
  br label %42

14:                                               ; preds = %1
  %15 = load ptr, ptr %4, align 8, !tbaa !97
  %16 = getelementptr inbounds nuw %struct.DIGESTSIGN_DATA, ptr %15, i32 0, i32 5
  %17 = load ptr, ptr %16, align 8, !tbaa !217
  %18 = load ptr, ptr %4, align 8, !tbaa !97
  %19 = getelementptr inbounds nuw %struct.DIGESTSIGN_DATA, ptr %18, i32 0, i32 3
  %20 = load ptr, ptr %19, align 8, !tbaa !216
  %21 = call i32 @evp_test_buffer_do(ptr noundef %17, ptr noundef @digestverify_update_fn, ptr noundef %20)
  %22 = icmp ne i32 %21, 0
  br i1 %22, label %26, label %23

23:                                               ; preds = %14
  %24 = load ptr, ptr %3, align 8, !tbaa !15
  %25 = getelementptr inbounds nuw %struct.evp_test_st, ptr %24, i32 0, i32 4
  store ptr @.str.233, ptr %25, align 8, !tbaa !63
  store i32 1, ptr %2, align 4
  store i32 1, ptr %5, align 4
  br label %42

26:                                               ; preds = %14
  %27 = load ptr, ptr %4, align 8, !tbaa !97
  %28 = getelementptr inbounds nuw %struct.DIGESTSIGN_DATA, ptr %27, i32 0, i32 3
  %29 = load ptr, ptr %28, align 8, !tbaa !216
  %30 = load ptr, ptr %4, align 8, !tbaa !97
  %31 = getelementptr inbounds nuw %struct.DIGESTSIGN_DATA, ptr %30, i32 0, i32 8
  %32 = load ptr, ptr %31, align 8, !tbaa !219
  %33 = load ptr, ptr %4, align 8, !tbaa !97
  %34 = getelementptr inbounds nuw %struct.DIGESTSIGN_DATA, ptr %33, i32 0, i32 9
  %35 = load i64, ptr %34, align 8, !tbaa !226
  %36 = call i32 @EVP_DigestVerifyFinal(ptr noundef %29, ptr noundef %32, i64 noundef %35)
  %37 = icmp sle i32 %36, 0
  br i1 %37, label %38, label %41

38:                                               ; preds = %26
  %39 = load ptr, ptr %3, align 8, !tbaa !15
  %40 = getelementptr inbounds nuw %struct.evp_test_st, ptr %39, i32 0, i32 4
  store ptr @.str.270, ptr %40, align 8, !tbaa !63
  br label %41

41:                                               ; preds = %38, %26
  store i32 1, ptr %2, align 4
  store i32 1, ptr %5, align 4
  br label %42

42:                                               ; preds = %41, %23, %13
  call void @llvm.lifetime.end.p0(i64 8, ptr %4) #10
  %43 = load i32, ptr %2, align 4
  ret i32 %43
}