; Function Attrs: nounwind uwtable
define internal noundef i32 @digestverify_test_run(ptr noundef captures(none) %0) #1 {
  %2 = getelementptr inbounds nuw i8, ptr %0, i64 35272
  %3 = load ptr, ptr %2, align 8, !tbaa !20
  %4 = tail call fastcc i32 @signverify_init(ptr noundef %0, ptr noundef %3)
  %.not = icmp eq i32 %4, 0
  br i1 %.not, label %35, label %5

5:                                                ; preds = %1
  %6 = getelementptr inbounds nuw i8, ptr %3, i64 32
  %7 = load ptr, ptr %6, align 8, !tbaa !177
  %8 = getelementptr inbounds nuw i8, ptr %3, i64 16
  %9 = load ptr, ptr %8, align 8, !tbaa !176
  %10 = tail call i32 @OPENSSL_sk_num(ptr noundef %7) #10
  %11 = icmp sgt i32 %10, 0
  br i1 %11, label %.lr.ph20.i, label %.loopexit

.lr.ph20.i:                                       ; preds = %5, %.critedge.i
  %.01519.i = phi i32 [ %24, %.critedge.i ], [ 0, %5 ]
  %12 = tail call ptr @OPENSSL_sk_value(ptr noundef %7, i32 noundef %.01519.i) #10
  %13 = getelementptr inbounds nuw i8, ptr %12, i64 16
  %14 = load i64, ptr %13, align 8, !tbaa !161
  %.not17.not.i = icmp eq i64 %14, 0
  br i1 %.not17.not.i, label %.critedge.i, label %.lr.ph.i

.lr.ph.i:                                         ; preds = %.lr.ph20.i
  %15 = getelementptr inbounds nuw i8, ptr %12, i64 8
  br label %19

16:                                               ; preds = %19
  %17 = add nuw i64 %.01318.i, 1
  %18 = load i64, ptr %13, align 8, !tbaa !161
  %.not.i = icmp ult i64 %17, %18
  br i1 %.not.i, label %19, label %.critedge.i, !llvm.loop !164

19:                                               ; preds = %16, %.lr.ph.i
  %.01318.i = phi i64 [ 0, %.lr.ph.i ], [ %17, %16 ]
  %20 = load ptr, ptr %12, align 8, !tbaa !165
  %21 = load i64, ptr %15, align 8, !tbaa !166
  %22 = tail call i32 @EVP_DigestVerifyUpdate(ptr noundef %9, ptr noundef %20, i64 noundef %21) #10
  %23 = icmp slt i32 %22, 1
  br i1 %23, label %.sink.split, label %16

.critedge.i:                                      ; preds = %16, %.lr.ph20.i
  %24 = add nuw nsw i32 %.01519.i, 1
  %25 = tail call i32 @OPENSSL_sk_num(ptr noundef %7) #10
  %26 = icmp slt i32 %24, %25
  br i1 %26, label %.lr.ph20.i, label %.loopexit, !llvm.loop !167

.loopexit:                                        ; preds = %.critedge.i, %5
  %27 = load ptr, ptr %8, align 8, !tbaa !176
  %28 = getelementptr inbounds nuw i8, ptr %3, i64 56
  %29 = load ptr, ptr %28, align 8, !tbaa !179
  %30 = getelementptr inbounds nuw i8, ptr %3, i64 64
  %31 = load i64, ptr %30, align 8, !tbaa !186
  %32 = tail call i32 @EVP_DigestVerifyFinal(ptr noundef %27, ptr noundef %29, i64 noundef %31) #10
  %33 = icmp slt i32 %32, 1
  br i1 %33, label %.sink.split, label %35

.sink.split:                                      ; preds = %19, %.loopexit
  %.str.270.sink = phi ptr [ @.str.270, %.loopexit ], [ @.str.233, %19 ]
  %34 = getelementptr inbounds nuw i8, ptr %0, i64 35240
  store ptr %.str.270.sink, ptr %34, align 8, !tbaa !64
  br label %35

35:                                               ; preds = %.sink.split, %.loopexit, %1
  ret i32 1
}